
main.elf:     file format elf32-avr

Sections:
Idx Name          Size      VMA       LMA       File off  Algn
  0 .text         000003fa  00000000  00000000  00000074  2**1
                  CONTENTS, ALLOC, LOAD, READONLY, CODE
  1 .bss          0000000d  00800060  00800060  0000046e  2**0
                  ALLOC
  2 .stab         00000fa8  00000000  00000000  00000470  2**2
                  CONTENTS, READONLY, DEBUGGING
  3 .stabstr      0000079f  00000000  00000000  00001418  2**0
                  CONTENTS, READONLY, DEBUGGING
Disassembly of section .text:

00000000 <__vectors>:
   0:	14 c0       	rjmp	.+40     	; 0x2a <__ctors_end>
   2:	2e c0       	rjmp	.+92     	; 0x60 <__bad_interrupt>
   4:	2d c0       	rjmp	.+90     	; 0x60 <__bad_interrupt>
   6:	2c c0       	rjmp	.+88     	; 0x60 <__bad_interrupt>
   8:	2b c0       	rjmp	.+86     	; 0x60 <__bad_interrupt>
   a:	2a c0       	rjmp	.+84     	; 0x60 <__bad_interrupt>
   c:	6c c0       	rjmp	.+216    	; 0xe6 <__vector_6>
   e:	28 c0       	rjmp	.+80     	; 0x60 <__bad_interrupt>
  10:	27 c0       	rjmp	.+78     	; 0x60 <__bad_interrupt>
  12:	26 c0       	rjmp	.+76     	; 0x60 <__bad_interrupt>
  14:	25 c0       	rjmp	.+74     	; 0x60 <__bad_interrupt>
  16:	24 c0       	rjmp	.+72     	; 0x60 <__bad_interrupt>
  18:	23 c0       	rjmp	.+70     	; 0x60 <__bad_interrupt>
  1a:	22 c0       	rjmp	.+68     	; 0x60 <__bad_interrupt>
  1c:	21 c0       	rjmp	.+66     	; 0x60 <__bad_interrupt>
  1e:	20 c0       	rjmp	.+64     	; 0x60 <__bad_interrupt>
  20:	1f c0       	rjmp	.+62     	; 0x60 <__bad_interrupt>
  22:	1e c0       	rjmp	.+60     	; 0x60 <__bad_interrupt>
  24:	1d c0       	rjmp	.+58     	; 0x60 <__bad_interrupt>
  26:	1c c0       	rjmp	.+56     	; 0x60 <__bad_interrupt>
  28:	1b c0       	rjmp	.+54     	; 0x60 <__bad_interrupt>

0000002a <__ctors_end>:
  2a:	11 24       	eor	r1, r1
  2c:	1f be       	out	0x3f, r1	; 63
  2e:	cf e5       	ldi	r28, 0x5F	; 95
  30:	d2 e0       	ldi	r29, 0x02	; 2
  32:	de bf       	out	0x3e, r29	; 62
  34:	cd bf       	out	0x3d, r28	; 61

00000036 <__do_copy_data>:
  36:	10 e0       	ldi	r17, 0x00	; 0
  38:	a0 e6       	ldi	r26, 0x60	; 96
  3a:	b0 e0       	ldi	r27, 0x00	; 0
  3c:	ea ef       	ldi	r30, 0xFA	; 250
  3e:	f3 e0       	ldi	r31, 0x03	; 3
  40:	02 c0       	rjmp	.+4      	; 0x46 <.do_copy_data_start>

00000042 <.do_copy_data_loop>:
  42:	05 90       	lpm	r0, Z+
  44:	0d 92       	st	X+, r0

00000046 <.do_copy_data_start>:
  46:	a0 36       	cpi	r26, 0x60	; 96
  48:	b1 07       	cpc	r27, r17
  4a:	d9 f7       	brne	.-10     	; 0x42 <.do_copy_data_loop>

0000004c <__do_clear_bss>:
  4c:	10 e0       	ldi	r17, 0x00	; 0
  4e:	a0 e6       	ldi	r26, 0x60	; 96
  50:	b0 e0       	ldi	r27, 0x00	; 0
  52:	01 c0       	rjmp	.+2      	; 0x56 <.do_clear_bss_start>

00000054 <.do_clear_bss_loop>:
  54:	1d 92       	st	X+, r1

00000056 <.do_clear_bss_start>:
  56:	ad 36       	cpi	r26, 0x6D	; 109
  58:	b1 07       	cpc	r27, r17
  5a:	e1 f7       	brne	.-8      	; 0x54 <.do_clear_bss_loop>
  5c:	73 d1       	rcall	.+742    	; 0x344 <main>
  5e:	cc c1       	rjmp	.+920    	; 0x3f8 <_exit>

00000060 <__bad_interrupt>:
  60:	cf cf       	rjmp	.-98     	; 0x0 <__heap_end>

00000062 <delayms>:
unsigned int delaycounter1,delaycounter2;
void delayms(unsigned int delaytime)
{

	 for(delaycounter1=0;delaycounter1<=delaytime;delaycounter1++)
  62:	10 92 6c 00 	sts	0x006C, r1
  66:	10 92 6b 00 	sts	0x006B, r1
  6a:	20 e0       	ldi	r18, 0x00	; 0
  6c:	30 e0       	ldi	r19, 0x00	; 0
  6e:	40 e0       	ldi	r20, 0x00	; 0
  70:	50 e0       	ldi	r21, 0x00	; 0
	...
	 {
		 for(delaycounter2=0;delaycounter2<=800;delaycounter2++)
		  {
		  asm("nop");asm("nop");asm("nop");asm("nop");asm("nop");asm("nop");
		  asm("nop");asm("nop");asm("nop");asm("nop");asm("nop");asm("nop");
  8a:	4f 5f       	subi	r20, 0xFF	; 255
  8c:	5f 4f       	sbci	r21, 0xFF	; 255
  8e:	63 e0       	ldi	r22, 0x03	; 3
  90:	41 32       	cpi	r20, 0x21	; 33
  92:	56 07       	cpc	r21, r22
  94:	71 f7       	brne	.-36     	; 0x72 <delayms+0x10>
  96:	2f 5f       	subi	r18, 0xFF	; 255
  98:	3f 4f       	sbci	r19, 0xFF	; 255
  9a:	82 17       	cp	r24, r18
  9c:	93 07       	cpc	r25, r19
  9e:	38 f7       	brcc	.-50     	; 0x6e <delayms+0xc>
  a0:	30 93 6c 00 	sts	0x006C, r19
  a4:	20 93 6b 00 	sts	0x006B, r18
  a8:	50 93 69 00 	sts	0x0069, r21
  ac:	40 93 68 00 	sts	0x0068, r20
  b0:	08 95       	ret

000000b2 <delayus>:
		  }
		
	 }
}

void delayus(unsigned int delaytime)
{

	 for(delaycounter1=0;delaycounter1<=delaytime;delaycounter1++)
  b2:	10 92 6c 00 	sts	0x006C, r1
  b6:	10 92 6b 00 	sts	0x006B, r1
  ba:	20 e0       	ldi	r18, 0x00	; 0
  bc:	30 e0       	ldi	r19, 0x00	; 0
	...
	 {
		 
		  asm("nop");asm("nop");asm("nop");asm("nop");asm("nop");asm("nop");
		  asm("nop");asm("nop");asm("nop");asm("nop");
  d2:	2f 5f       	subi	r18, 0xFF	; 255
  d4:	3f 4f       	sbci	r19, 0xFF	; 255
  d6:	82 17       	cp	r24, r18
  d8:	93 07       	cpc	r25, r19
  da:	88 f7       	brcc	.-30     	; 0xbe <delayus+0xc>
  dc:	30 93 6c 00 	sts	0x006C, r19
  e0:	20 93 6b 00 	sts	0x006B, r18
  e4:	08 95       	ret

000000e6 <__vector_6>:
unsigned char d,imat;
unsigned char dar[7];

ISR (TIMER1_COMPA_vect) // void timer1_compA_isr(void)
{
  e6:	1f 92       	push	r1
  e8:	0f 92       	push	r0
  ea:	0f b6       	in	r0, 0x3f	; 63
  ec:	0f 92       	push	r0
  ee:	11 24       	eor	r1, r1
  f0:	2f 93       	push	r18
  f2:	3f 93       	push	r19
  f4:	4f 93       	push	r20
  f6:	5f 93       	push	r21
  f8:	6f 93       	push	r22
  fa:	7f 93       	push	r23
  fc:	8f 93       	push	r24
  fe:	9f 93       	push	r25
 100:	af 93       	push	r26
 102:	bf 93       	push	r27
 104:	ef 93       	push	r30
 106:	ff 93       	push	r31
  PORTA=dar[imat]|imat;
 108:	80 91 67 00 	lds	r24, 0x0067
 10c:	e8 2f       	mov	r30, r24
 10e:	ff 27       	eor	r31, r31
 110:	e0 5a       	subi	r30, 0xA0	; 160
 112:	ff 4f       	sbci	r31, 0xFF	; 255
 114:	90 81       	ld	r25, Z
 116:	89 2b       	or	r24, r25
 118:	8b bb       	out	0x1b, r24	; 27
   delayms(1);
 11a:	81 e0       	ldi	r24, 0x01	; 1
 11c:	90 e0       	ldi	r25, 0x00	; 0
 11e:	a1 df       	rcall	.-190    	; 0x62 <delayms>
   if(imat>=6)
 120:	80 91 67 00 	lds	r24, 0x0067
 124:	86 30       	cpi	r24, 0x06	; 6
 126:	18 f0       	brcs	.+6      	; 0x12e <__vector_6+0x48>
    imat=0;
 128:	10 92 67 00 	sts	0x0067, r1
 12c:	03 c0       	rjmp	.+6      	; 0x134 <__vector_6+0x4e>
   else	
	imat++;
 12e:	8f 5f       	subi	r24, 0xFF	; 255
 130:	80 93 67 00 	sts	0x0067, r24
 134:	ff 91       	pop	r31
 136:	ef 91       	pop	r30
 138:	bf 91       	pop	r27
 13a:	af 91       	pop	r26
 13c:	9f 91       	pop	r25
 13e:	8f 91       	pop	r24
 140:	7f 91       	pop	r23
 142:	6f 91       	pop	r22
 144:	5f 91       	pop	r21
 146:	4f 91       	pop	r20
 148:	3f 91       	pop	r19
 14a:	2f 91       	pop	r18
 14c:	0f 90       	pop	r0
 14e:	0f be       	out	0x3f, r0	; 63
 150:	0f 90       	pop	r0
 152:	1f 90       	pop	r1
 154:	18 95       	reti

00000156 <A>:
}

void A() 
 {
  dar[0]=0x88;
 156:	88 e8       	ldi	r24, 0x88	; 136
 158:	80 93 60 00 	sts	0x0060, r24
  dar[1]=0x70;
 15c:	80 e7       	ldi	r24, 0x70	; 112
 15e:	80 93 61 00 	sts	0x0061, r24
  dar[2]=0x70;
 162:	80 93 62 00 	sts	0x0062, r24
  dar[3]=0x70;
 166:	80 93 63 00 	sts	0x0063, r24
  dar[4]=0x00;
 16a:	10 92 64 00 	sts	0x0064, r1
  dar[5]=0x70;
 16e:	80 93 65 00 	sts	0x0065, r24
  dar[6]=0x70;
 172:	80 93 66 00 	sts	0x0066, r24
 176:	08 95       	ret

00000178 <B>:
 }
 
void B() 
 {
  dar[0]=0x08;
 178:	98 e0       	ldi	r25, 0x08	; 8
 17a:	90 93 60 00 	sts	0x0060, r25
  dar[1]=0x70;
 17e:	80 e7       	ldi	r24, 0x70	; 112
 180:	80 93 61 00 	sts	0x0061, r24
  dar[2]=0x70;
 184:	80 93 62 00 	sts	0x0062, r24
  dar[3]=0x08;
 188:	90 93 63 00 	sts	0x0063, r25
  dar[4]=0x70;
 18c:	80 93 64 00 	sts	0x0064, r24
  dar[5]=0x70;
 190:	80 93 65 00 	sts	0x0065, r24
  dar[6]=0x08;
 194:	90 93 66 00 	sts	0x0066, r25
 198:	08 95       	ret

0000019a <C>:
 }
 
void C()
 {
  dar[0]=0x88;
 19a:	28 e8       	ldi	r18, 0x88	; 136
 19c:	20 93 60 00 	sts	0x0060, r18
  dar[1]=0x70;
 1a0:	90 e7       	ldi	r25, 0x70	; 112
 1a2:	90 93 61 00 	sts	0x0061, r25
  dar[2]=0x78;
 1a6:	88 e7       	ldi	r24, 0x78	; 120
 1a8:	80 93 62 00 	sts	0x0062, r24
  dar[3]=0x78;
 1ac:	80 93 63 00 	sts	0x0063, r24
  dar[4]=0x78;
 1b0:	80 93 64 00 	sts	0x0064, r24
  dar[5]=0x70;
 1b4:	90 93 65 00 	sts	0x0065, r25
  dar[6]=0x88;
 1b8:	20 93 66 00 	sts	0x0066, r18
 1bc:	08 95       	ret

000001be <D>:
 }
 
void D()
 {
  dar[0]=0x18;
 1be:	28 e1       	ldi	r18, 0x18	; 24
 1c0:	20 93 60 00 	sts	0x0060, r18
  dar[1]=0x68;
 1c4:	98 e6       	ldi	r25, 0x68	; 104
 1c6:	90 93 61 00 	sts	0x0061, r25
  dar[2]=0x70;
 1ca:	80 e7       	ldi	r24, 0x70	; 112
 1cc:	80 93 62 00 	sts	0x0062, r24
  dar[3]=0x70;
 1d0:	80 93 63 00 	sts	0x0063, r24
  dar[4]=0x70;
 1d4:	80 93 64 00 	sts	0x0064, r24
  dar[5]=0x68;
 1d8:	90 93 65 00 	sts	0x0065, r25
  dar[6]=0x18;
 1dc:	20 93 66 00 	sts	0x0066, r18
 1e0:	08 95       	ret

000001e2 <E>:
 } 
 
void E()
 {
  dar[0]=0x00;
 1e2:	10 92 60 00 	sts	0x0060, r1
  dar[1]=0x78;
 1e6:	88 e7       	ldi	r24, 0x78	; 120
 1e8:	80 93 61 00 	sts	0x0061, r24
  dar[2]=0x78;
 1ec:	80 93 62 00 	sts	0x0062, r24
  dar[3]=0x00;
 1f0:	10 92 63 00 	sts	0x0063, r1
  dar[4]=0x78;
 1f4:	80 93 64 00 	sts	0x0064, r24
  dar[5]=0x78;
 1f8:	80 93 65 00 	sts	0x0065, r24
  dar[6]=0x00;
 1fc:	10 92 66 00 	sts	0x0066, r1
 200:	08 95       	ret

00000202 <F>:
 }  
 
void F()
 {
  dar[0]=0x00;
 202:	10 92 60 00 	sts	0x0060, r1
  dar[1]=0x78;
 206:	98 e7       	ldi	r25, 0x78	; 120
 208:	90 93 61 00 	sts	0x0061, r25
  dar[2]=0x78;
 20c:	90 93 62 00 	sts	0x0062, r25
  dar[3]=0x08;
 210:	88 e0       	ldi	r24, 0x08	; 8
 212:	80 93 63 00 	sts	0x0063, r24
  dar[4]=0x78;
 216:	90 93 64 00 	sts	0x0064, r25
  dar[5]=0x78;
 21a:	90 93 65 00 	sts	0x0065, r25
  dar[6]=0x78;
 21e:	90 93 66 00 	sts	0x0066, r25
 222:	08 95       	ret

00000224 <G>:
 }  

void G()
 {
  dar[0]=0x88;
 224:	88 e8       	ldi	r24, 0x88	; 136
 226:	80 93 60 00 	sts	0x0060, r24
  dar[1]=0x70;
 22a:	90 e7       	ldi	r25, 0x70	; 112
 22c:	90 93 61 00 	sts	0x0061, r25
  dar[2]=0x78;
 230:	88 e7       	ldi	r24, 0x78	; 120
 232:	80 93 62 00 	sts	0x0062, r24
  dar[3]=0x60;
 236:	80 e6       	ldi	r24, 0x60	; 96
 238:	80 93 63 00 	sts	0x0063, r24
  dar[4]=0x70;
 23c:	90 93 64 00 	sts	0x0064, r25
  dar[5]=0x70;
 240:	90 93 65 00 	sts	0x0065, r25
  dar[6]=0x80;
 244:	80 e8       	ldi	r24, 0x80	; 128
 246:	80 93 66 00 	sts	0x0066, r24
 24a:	08 95       	ret

0000024c <H>:
 } 
 
void H() 
 {
  dar[0]=0x70;
 24c:	80 e7       	ldi	r24, 0x70	; 112
 24e:	80 93 60 00 	sts	0x0060, r24
  dar[1]=0x70;
 252:	80 93 61 00 	sts	0x0061, r24
  dar[2]=0x70;
 256:	80 93 62 00 	sts	0x0062, r24
  dar[3]=0x00;
 25a:	10 92 63 00 	sts	0x0063, r1
  dar[4]=0x70;
 25e:	80 93 64 00 	sts	0x0064, r24
  dar[5]=0x70;
 262:	80 93 65 00 	sts	0x0065, r24
  dar[6]=0x70;
 266:	80 93 66 00 	sts	0x0066, r24
 26a:	08 95       	ret

0000026c <I>:
 }
 
void I() 
 {
  dar[0]=0x88;
 26c:	98 e8       	ldi	r25, 0x88	; 136
 26e:	90 93 60 00 	sts	0x0060, r25
  dar[1]=0xD8;
 272:	88 ed       	ldi	r24, 0xD8	; 216
 274:	80 93 61 00 	sts	0x0061, r24
  dar[2]=0xD8;
 278:	80 93 62 00 	sts	0x0062, r24
  dar[3]=0xD8;
 27c:	80 93 63 00 	sts	0x0063, r24
  dar[4]=0xD8;
 280:	80 93 64 00 	sts	0x0064, r24
  dar[5]=0xD8;
 284:	80 93 65 00 	sts	0x0065, r24
  dar[6]=0x88;
 288:	90 93 66 00 	sts	0x0066, r25
 28c:	08 95       	ret

0000028e <J>:
 }
 
void J() 
 {
  dar[0]=0xC0;
 28e:	80 ec       	ldi	r24, 0xC0	; 192
 290:	80 93 60 00 	sts	0x0060, r24
  dar[1]=0xE8;
 294:	88 ee       	ldi	r24, 0xE8	; 232
 296:	80 93 61 00 	sts	0x0061, r24
  dar[2]=0xE8;
 29a:	80 93 62 00 	sts	0x0062, r24
  dar[3]=0xE8;
 29e:	80 93 63 00 	sts	0x0063, r24
  dar[4]=0xE8;
 2a2:	80 93 64 00 	sts	0x0064, r24
  dar[5]=0x68;
 2a6:	88 e6       	ldi	r24, 0x68	; 104
 2a8:	80 93 65 00 	sts	0x0065, r24
  dar[6]=0x98;
 2ac:	88 e9       	ldi	r24, 0x98	; 152
 2ae:	80 93 66 00 	sts	0x0066, r24
 2b2:	08 95       	ret

000002b4 <K>:
 }
 
void K() 
 {
  dar[0]=0x70;
 2b4:	30 e7       	ldi	r19, 0x70	; 112
 2b6:	30 93 60 00 	sts	0x0060, r19
  dar[1]=0x68;
 2ba:	28 e6       	ldi	r18, 0x68	; 104
 2bc:	20 93 61 00 	sts	0x0061, r18
  dar[2]=0x58;
 2c0:	98 e5       	ldi	r25, 0x58	; 88
 2c2:	90 93 62 00 	sts	0x0062, r25
  dar[3]=0x38;
 2c6:	88 e3       	ldi	r24, 0x38	; 56
 2c8:	80 93 63 00 	sts	0x0063, r24
  dar[4]=0x58;
 2cc:	90 93 64 00 	sts	0x0064, r25
  dar[5]=0x68;
 2d0:	20 93 65 00 	sts	0x0065, r18
  dar[6]=0x70;
 2d4:	30 93 66 00 	sts	0x0066, r19
 2d8:	08 95       	ret

000002da <L>:
 }
 
void L() 
 {
  dar[0]=0x78;
 2da:	88 e7       	ldi	r24, 0x78	; 120
 2dc:	80 93 60 00 	sts	0x0060, r24
  dar[1]=0x78;
 2e0:	80 93 61 00 	sts	0x0061, r24
  dar[2]=0x78;
 2e4:	80 93 62 00 	sts	0x0062, r24
  dar[3]=0x78;
 2e8:	80 93 63 00 	sts	0x0063, r24
  dar[4]=0x78;
 2ec:	80 93 64 00 	sts	0x0064, r24
  dar[5]=0x78;
 2f0:	80 93 65 00 	sts	0x0065, r24
  dar[6]=0x00;
 2f4:	10 92 66 00 	sts	0x0066, r1
 2f8:	08 95       	ret

000002fa <M>:
 }
void M() 
 {
  dar[0]=0x70;
 2fa:	80 e7       	ldi	r24, 0x70	; 112
 2fc:	80 93 60 00 	sts	0x0060, r24
  dar[1]=0x20;
 300:	90 e2       	ldi	r25, 0x20	; 32
 302:	90 93 61 00 	sts	0x0061, r25
  dar[2]=0x50;
 306:	90 e5       	ldi	r25, 0x50	; 80
 308:	90 93 62 00 	sts	0x0062, r25
  dar[3]=0x50;
 30c:	90 93 63 00 	sts	0x0063, r25
  dar[4]=0x70;
 310:	80 93 64 00 	sts	0x0064, r24
  dar[5]=0x70;
 314:	80 93 65 00 	sts	0x0065, r24
  dar[6]=0x70;
 318:	80 93 66 00 	sts	0x0066, r24
 31c:	08 95       	ret

0000031e <N>:
 }
 
void N() 
 {
  dar[0]=0x70;
 31e:	90 e7       	ldi	r25, 0x70	; 112
 320:	90 93 60 00 	sts	0x0060, r25
  dar[1]=0x70;
 324:	90 93 61 00 	sts	0x0061, r25
  dar[2]=0x30;
 328:	80 e3       	ldi	r24, 0x30	; 48
 32a:	80 93 62 00 	sts	0x0062, r24
  dar[3]=0x50;
 32e:	80 e5       	ldi	r24, 0x50	; 80
 330:	80 93 63 00 	sts	0x0063, r24
  dar[4]=0x60;
 334:	80 e6       	ldi	r24, 0x60	; 96
 336:	80 93 64 00 	sts	0x0064, r24
  dar[5]=0x70;
 33a:	90 93 65 00 	sts	0x0065, r25
  dar[6]=0x70;
 33e:	90 93 66 00 	sts	0x0066, r25
 342:	08 95       	ret

00000344 <main>:
 } 
 
 
int main()
{
imat=0;
 344:	10 92 67 00 	sts	0x0067, r1
TCCR1A=0x03;
 348:	83 e0       	ldi	r24, 0x03	; 3
 34a:	8f bd       	out	0x2f, r24	; 47
TCCR1B=0x1A;
 34c:	8a e1       	ldi	r24, 0x1A	; 26
 34e:	8e bd       	out	0x2e, r24	; 46
TCNT1H=0x00;
 350:	1d bc       	out	0x2d, r1	; 45
TCNT1L=0x00;
 352:	1c bc       	out	0x2c, r1	; 44
OCR1AH=0x07;
 354:	87 e0       	ldi	r24, 0x07	; 7
 356:	8b bd       	out	0x2b, r24	; 43
OCR1AL=0xFF;
 358:	8f ef       	ldi	r24, 0xFF	; 255
 35a:	8a bd       	out	0x2a, r24	; 42
TIMSK=0x18;
 35c:	88 e1       	ldi	r24, 0x18	; 24
 35e:	89 bf       	out	0x39, r24	; 57
sei();
 360:	78 94       	sei

 DDRA=0xff;
 362:	8f ef       	ldi	r24, 0xFF	; 255
 364:	8a bb       	out	0x1a, r24	; 26
 PORTA=0x00;
 366:	1b ba       	out	0x1b, r1	; 27
 d=100;
 368:	84 e6       	ldi	r24, 0x64	; 100
 36a:	80 93 6a 00 	sts	0x006A, r24
  dar[0]=0xF8;
 36e:	88 ef       	ldi	r24, 0xF8	; 248
 370:	80 93 60 00 	sts	0x0060, r24
  dar[1]=0xF8;
 374:	80 93 61 00 	sts	0x0061, r24
  dar[2]=0xF8;
 378:	80 93 62 00 	sts	0x0062, r24
  dar[3]=0xF8;
 37c:	80 93 63 00 	sts	0x0063, r24
  dar[4]=0xF8;
 380:	80 93 64 00 	sts	0x0064, r24
  dar[5]=0xF8;
 384:	80 93 65 00 	sts	0x0065, r24
  dar[6]=0xF8;
 388:	80 93 66 00 	sts	0x0066, r24
  

 
 while(1)
  {
A();
 38c:	e4 de       	rcall	.-568    	; 0x156 <A>
delayus(10);
 38e:	8a e0       	ldi	r24, 0x0A	; 10
 390:	90 e0       	ldi	r25, 0x00	; 0
 392:	8f de       	rcall	.-738    	; 0xb2 <delayus>
B();
 394:	f1 de       	rcall	.-542    	; 0x178 <B>
delayus(10);
 396:	8a e0       	ldi	r24, 0x0A	; 10
 398:	90 e0       	ldi	r25, 0x00	; 0
 39a:	8b de       	rcall	.-746    	; 0xb2 <delayus>
C();
 39c:	fe de       	rcall	.-516    	; 0x19a <C>
delayus(10);
 39e:	8a e0       	ldi	r24, 0x0A	; 10
 3a0:	90 e0       	ldi	r25, 0x00	; 0
 3a2:	87 de       	rcall	.-754    	; 0xb2 <delayus>
D();
 3a4:	0c df       	rcall	.-488    	; 0x1be <D>
delayus(10);
 3a6:	8a e0       	ldi	r24, 0x0A	; 10
 3a8:	90 e0       	ldi	r25, 0x00	; 0
 3aa:	83 de       	rcall	.-762    	; 0xb2 <delayus>
E();
 3ac:	1a df       	rcall	.-460    	; 0x1e2 <E>
delayus(10);
 3ae:	8a e0       	ldi	r24, 0x0A	; 10
 3b0:	90 e0       	ldi	r25, 0x00	; 0
 3b2:	7f de       	rcall	.-770    	; 0xb2 <delayus>
F();
 3b4:	26 df       	rcall	.-436    	; 0x202 <F>
delayus(10);
 3b6:	8a e0       	ldi	r24, 0x0A	; 10
 3b8:	90 e0       	ldi	r25, 0x00	; 0
 3ba:	7b de       	rcall	.-778    	; 0xb2 <delayus>
G();
 3bc:	33 df       	rcall	.-410    	; 0x224 <G>
delayus(10);
 3be:	8a e0       	ldi	r24, 0x0A	; 10
 3c0:	90 e0       	ldi	r25, 0x00	; 0
 3c2:	77 de       	rcall	.-786    	; 0xb2 <delayus>
H();
 3c4:	43 df       	rcall	.-378    	; 0x24c <H>
delayus(10);
 3c6:	8a e0       	ldi	r24, 0x0A	; 10
 3c8:	90 e0       	ldi	r25, 0x00	; 0
 3ca:	73 de       	rcall	.-794    	; 0xb2 <delayus>
I();
 3cc:	4f df       	rcall	.-354    	; 0x26c <I>
delayus(10);
 3ce:	8a e0       	ldi	r24, 0x0A	; 10
 3d0:	90 e0       	ldi	r25, 0x00	; 0
 3d2:	6f de       	rcall	.-802    	; 0xb2 <delayus>
J();
 3d4:	5c df       	rcall	.-328    	; 0x28e <J>
delayus(10);
 3d6:	8a e0       	ldi	r24, 0x0A	; 10
 3d8:	90 e0       	ldi	r25, 0x00	; 0
 3da:	6b de       	rcall	.-810    	; 0xb2 <delayus>
K();
 3dc:	6b df       	rcall	.-298    	; 0x2b4 <K>
delayus(10);
 3de:	8a e0       	ldi	r24, 0x0A	; 10
 3e0:	90 e0       	ldi	r25, 0x00	; 0
 3e2:	67 de       	rcall	.-818    	; 0xb2 <delayus>
L();
 3e4:	7a df       	rcall	.-268    	; 0x2da <L>
delayus(10);
 3e6:	8a e0       	ldi	r24, 0x0A	; 10
 3e8:	90 e0       	ldi	r25, 0x00	; 0
 3ea:	63 de       	rcall	.-826    	; 0xb2 <delayus>
M();
 3ec:	86 df       	rcall	.-244    	; 0x2fa <M>
delayus(10);
 3ee:	8a e0       	ldi	r24, 0x0A	; 10
 3f0:	90 e0       	ldi	r25, 0x00	; 0
 3f2:	5f de       	rcall	.-834    	; 0xb2 <delayus>
N();
 3f4:	94 df       	rcall	.-216    	; 0x31e <N>
 3f6:	ff cf       	rjmp	.-2      	; 0x3f6 <main+0xb2>

000003f8 <_exit>:
 3f8:	ff cf       	rjmp	.-2      	; 0x3f8 <_exit>
